target datalayout = "e-m:e-p270:32:32-p271:32:32-p272:64:64-i64:64-i128:128-f80:128-n8:16:32:64-S128"
target triple = "x86_64-unknown-linux-gnu"

%struct.QEMUBH = type { ptr, ptr, ptr, ptr, %struct.anon, i32, ptr }
%struct.anon = type { ptr }
%struct.MemReentrancyGuard = type { i8 }
%struct.timeval = type { i64, i64 }

@trace_events_enabled_count = external global i32, align 4
@_TRACE_REENTRANT_AIO_DSTATE = external global i16, align 2
@message_with_timestamp = external global i8, align 1
@.str.9 = private unnamed_addr constant [43 x i8] c"%d@%zu.%06zu:reentrant_aio ctx %p name %s\0A\00", align 1
@.str.10 = private unnamed_addr constant [30 x i8] c"reentrant_aio ctx %p name %s\0A\00", align 1
@qemu_loglevel = external global i32, align 4

; Function Attrs: nounwind sspstrong uwtable
define internal zeroext i1 @qemu_loglevel_mask(i32 noundef %mask) #0 {
entry:
  %mask.addr = alloca i32, align 4
  store i32 %mask, ptr %mask.addr, align 4
  %0 = load i32, ptr @qemu_loglevel, align 4
  %1 = load i32, ptr %mask.addr, align 4
  %and = and i32 %0, %1
  %cmp = icmp ne i32 %and, 0
  ret i1 %cmp
}

; Function Attrs: nounwind sspstrong uwtable
define internal void @_nocheck__trace_reentrant_aio(ptr noundef %ctx, ptr noundef %name) #0 {
entry:
  %ctx.addr = alloca ptr, align 8
  %name.addr = alloca ptr, align 8
  %_now = alloca %struct.timeval, align 8
  store ptr %ctx, ptr %ctx.addr, align 8
  store ptr %name, ptr %name.addr, align 8
  %0 = load i32, ptr @trace_events_enabled_count, align 4
  %tobool = icmp ne i32 %0, 0
  %lnot = xor i1 %tobool, true
  %lnot1 = xor i1 %lnot, true
  %lnot.ext = zext i1 %lnot1 to i32
  %conv = sext i32 %lnot.ext to i64
  %tobool2 = icmp ne i64 %conv, 0
  br i1 %tobool2, label %land.lhs.true, label %if.end11

land.lhs.true:                                    ; preds = %entry
  %1 = load i16, ptr @_TRACE_REENTRANT_AIO_DSTATE, align 2
  %conv3 = zext i16 %1 to i32
  %tobool4 = icmp ne i32 %conv3, 0
  br i1 %tobool4, label %land.lhs.true5, label %if.end11

land.lhs.true5:                                   ; preds = %land.lhs.true
  %call = call zeroext i1 @qemu_loglevel_mask(i32 noundef 32768)
  br i1 %call, label %if.then, label %if.end11

if.then:                                          ; preds = %land.lhs.true5
  %2 = load i8, ptr @message_with_timestamp, align 1
  %tobool7 = trunc i8 %2 to i1
  br i1 %tobool7, label %if.then8, label %if.else

if.then8:                                         ; preds = %if.then
  %call9 = call i32 @gettimeofday(ptr noundef %_now, ptr noundef null) #11
  %call10 = call i32 @qemu_get_thread_id()
  %tv_sec = getelementptr inbounds %struct.timeval, ptr %_now, i32 0, i32 0
  %3 = load i64, ptr %tv_sec, align 8
  %tv_usec = getelementptr inbounds %struct.timeval, ptr %_now, i32 0, i32 1
  %4 = load i64, ptr %tv_usec, align 8
  %5 = load ptr, ptr %ctx.addr, align 8
  %6 = load ptr, ptr %name.addr, align 8
  call void (ptr, ...) @qemu_log(ptr noundef @.str.9, i32 noundef %call10, i64 noundef %3, i64 noundef %4, ptr noundef %5, ptr noundef %6)
  br label %if.end

if.else:                                          ; preds = %if.then
  %7 = load ptr, ptr %ctx.addr, align 8
  %8 = load ptr, ptr %name.addr, align 8
  call void (ptr, ...) @qemu_log(ptr noundef @.str.10, ptr noundef %7, ptr noundef %8)
  br label %if.end

if.end:                                           ; preds = %if.else, %if.then8
  br label %if.end11

if.end11:                                         ; preds = %if.end, %land.lhs.true5, %land.lhs.true, %entry
  ret void
}

; Function Attrs: nounwind sspstrong uwtable
define internal void @trace_reentrant_aio(ptr noundef %ctx, ptr noundef %name) #0 {
entry:
  %ctx.addr = alloca ptr, align 8
  %name.addr = alloca ptr, align 8
  store ptr %ctx, ptr %ctx.addr, align 8
  store ptr %name, ptr %name.addr, align 8
  %0 = load ptr, ptr %ctx.addr, align 8
  %1 = load ptr, ptr %name.addr, align 8
  call void @_nocheck__trace_reentrant_aio(ptr noundef %0, ptr noundef %1)
  ret void
}

; Function Attrs: nounwind sspstrong uwtable
define dso_local void @aio_bh_call(ptr noundef %bh) #0 {
entry:
  %bh.addr = alloca ptr, align 8
  %last_engaged_in_io = alloca i8, align 1
  %reentrancy_guard = alloca ptr, align 8
  store ptr %bh, ptr %bh.addr, align 8
  store i8 0, ptr %last_engaged_in_io, align 1
  %0 = load ptr, ptr %bh.addr, align 8
  %reentrancy_guard1 = getelementptr inbounds %struct.QEMUBH, ptr %0, i32 0, i32 6
  %1 = load ptr, ptr %reentrancy_guard1, align 8
  store ptr %1, ptr %reentrancy_guard, align 8
  %2 = load ptr, ptr %reentrancy_guard, align 8
  %tobool = icmp ne ptr %2, null
  br i1 %tobool, label %if.then, label %if.end7

if.then:                                          ; preds = %entry
  %3 = load ptr, ptr %reentrancy_guard, align 8
  %engaged_in_io = getelementptr inbounds %struct.MemReentrancyGuard, ptr %3, i32 0, i32 0
  %4 = load i8, ptr %engaged_in_io, align 1
  %tobool2 = trunc i8 %4 to i1
  %frombool = zext i1 %tobool2 to i8
  store i8 %frombool, ptr %last_engaged_in_io, align 1
  %5 = load ptr, ptr %reentrancy_guard, align 8
  %engaged_in_io3 = getelementptr inbounds %struct.MemReentrancyGuard, ptr %5, i32 0, i32 0
  %6 = load i8, ptr %engaged_in_io3, align 1
  %tobool4 = trunc i8 %6 to i1
  br i1 %tobool4, label %if.then5, label %if.end

if.then5:                                         ; preds = %if.then
  %7 = load ptr, ptr %bh.addr, align 8
  %ctx = getelementptr inbounds %struct.QEMUBH, ptr %7, i32 0, i32 0
  %8 = load ptr, ptr %ctx, align 8
  %9 = load ptr, ptr %bh.addr, align 8
  %name = getelementptr inbounds %struct.QEMUBH, ptr %9, i32 0, i32 1
  %10 = load ptr, ptr %name, align 8
  call void @trace_reentrant_aio(ptr noundef %8, ptr noundef %10)
  br label %if.end

if.end:                                           ; preds = %if.then5, %if.then
  %11 = load ptr, ptr %reentrancy_guard, align 8
  %engaged_in_io6 = getelementptr inbounds %struct.MemReentrancyGuard, ptr %11, i32 0, i32 0
  store i8 1, ptr %engaged_in_io6, align 1
  br label %if.end7

if.end7:                                          ; preds = %if.end, %entry
  %12 = load ptr, ptr %bh.addr, align 8
  %cb = getelementptr inbounds %struct.QEMUBH, ptr %12, i32 0, i32 2
  %13 = load ptr, ptr %cb, align 8
  %14 = load ptr, ptr %bh.addr, align 8
  %opaque = getelementptr inbounds %struct.QEMUBH, ptr %14, i32 0, i32 3
  %15 = load ptr, ptr %opaque, align 8
  call void %13(ptr noundef %15)
  %16 = load ptr, ptr %reentrancy_guard, align 8
  %tobool8 = icmp ne ptr %16, null
  br i1 %tobool8, label %if.then9, label %if.end13

if.then9:                                         ; preds = %if.end7
  %17 = load i8, ptr %last_engaged_in_io, align 1
  %tobool10 = trunc i8 %17 to i1
  %18 = load ptr, ptr %reentrancy_guard, align 8
  %engaged_in_io11 = getelementptr inbounds %struct.MemReentrancyGuard, ptr %18, i32 0, i32 0
  %frombool12 = zext i1 %tobool10 to i8
  store i8 %frombool12, ptr %engaged_in_io11, align 1
  br label %if.end13

if.end13:                                         ; preds = %if.then9, %if.end7
  ret void
}