; Function Attrs: nounwind sspstrong uwtable
define dso_local void @aio_bh_call(ptr noundef readonly captures(none) %bh) local_unnamed_addr #0 {
entry:
  %_now.i.i = alloca %struct.timeval, align 8
  %reentrancy_guard1 = getelementptr inbounds nuw i8, ptr %bh, i64 48
  %0 = load ptr, ptr %reentrancy_guard1, align 8
  %tobool.not = icmp eq ptr %0, null
  br i1 %tobool.not, label %if.end7.thread, label %if.then

if.end7.thread:                                   ; preds = %entry
  %cb11 = getelementptr inbounds nuw i8, ptr %bh, i64 16
  %1 = load ptr, ptr %cb11, align 8
  %opaque12 = getelementptr inbounds nuw i8, ptr %bh, i64 24
  %2 = load ptr, ptr %opaque12, align 8
  tail call void %1(ptr noundef %2) #13
  br label %if.end13

if.then:                                          ; preds = %entry
  %3 = load i8, ptr %0, align 1
  %tobool2 = trunc i8 %3 to i1
  br i1 %tobool2, label %if.then5, label %if.then9

if.then5:                                         ; preds = %if.then
  %4 = load ptr, ptr %bh, align 8
  %name = getelementptr inbounds nuw i8, ptr %bh, i64 8
  %5 = load ptr, ptr %name, align 8
  call void @llvm.lifetime.start.p0(i64 16, ptr nonnull %_now.i.i)
  %6 = load i32, ptr @trace_events_enabled_count, align 4
  %tobool.i.i = icmp ne i32 %6, 0
  %7 = load i16, ptr @_TRACE_REENTRANT_AIO_DSTATE, align 2
  %tobool4.i.i = icmp ne i16 %7, 0
  %or.cond.i.i = select i1 %tobool.i.i, i1 %tobool4.i.i, i1 false
  br i1 %or.cond.i.i, label %land.lhs.true5.i.i, label %trace_reentrant_aio.exit

land.lhs.true5.i.i:                               ; preds = %if.then5
  %8 = load i32, ptr @qemu_loglevel, align 4
  %and.i.i.i = and i32 %8, 32768
  %cmp.i.not.i.i = icmp eq i32 %and.i.i.i, 0
  br i1 %cmp.i.not.i.i, label %trace_reentrant_aio.exit, label %if.then.i.i

if.then.i.i:                                      ; preds = %land.lhs.true5.i.i
  %9 = load i8, ptr @message_with_timestamp, align 1
  %tobool7.i.i = trunc i8 %9 to i1
  br i1 %tobool7.i.i, label %if.then8.i.i, label %if.else.i.i

if.then8.i.i:                                     ; preds = %if.then.i.i
  %call9.i.i = call i32 @gettimeofday(ptr noundef nonnull %_now.i.i, ptr noundef null) #13
  %call10.i.i = tail call i32 @qemu_get_thread_id() #13
  %10 = load i64, ptr %_now.i.i, align 8
  %tv_usec.i.i = getelementptr inbounds nuw i8, ptr %_now.i.i, i64 8
  %11 = load i64, ptr %tv_usec.i.i, align 8
  tail call void (ptr, ...) @qemu_log(ptr noundef nonnull @.str.9, i32 noundef %call10.i.i, i64 noundef %10, i64 noundef %11, ptr noundef %4, ptr noundef %5) #13
  br label %trace_reentrant_aio.exit

if.else.i.i:                                      ; preds = %if.then.i.i
  tail call void (ptr, ...) @qemu_log(ptr noundef nonnull @.str.10, ptr noundef %4, ptr noundef %5) #13
  br label %trace_reentrant_aio.exit

trace_reentrant_aio.exit:                         ; preds = %if.then5, %land.lhs.true5.i.i, %if.then8.i.i, %if.else.i.i
  call void @llvm.lifetime.end.p0(i64 16, ptr nonnull %_now.i.i)
  br label %if.then9

if.then9:                                         ; preds = %trace_reentrant_aio.exit, %if.then
  store i8 1, ptr %0, align 1
  %12 = and i8 %3, 1
  %cb = getelementptr inbounds nuw i8, ptr %bh, i64 16
  %13 = load ptr, ptr %cb, align 8
  %opaque = getelementptr inbounds nuw i8, ptr %bh, i64 24
  %14 = load ptr, ptr %opaque, align 8
  tail call void %13(ptr noundef %14) #13
  store i8 %12, ptr %0, align 1
  br label %if.end13

if.end13:                                         ; preds = %if.end7.thread, %if.then9
  ret void
}